target datalayout = "e-m:e-p270:32:32-p271:32:32-p272:64:64-i64:64-i128:128-f80:128-n8:16:32:64-S128"
target triple = "x86_64-pc-linux-gnu"

%"class.cv::Mat" = type { i32, i32, i32, i32, ptr, ptr, ptr, ptr, ptr, ptr, %"struct.cv::MatSize", %"struct.cv::MatStep" }
%"struct.cv::MatSize" = type { ptr }
%"struct.cv::MatStep" = type { ptr, [2 x i64] }
%"class.std::__cxx11::basic_string" = type { %"struct.std::__cxx11::basic_string<char>::_Alloc_hider", i64, %union.anon }
%"struct.std::__cxx11::basic_string<char>::_Alloc_hider" = type { ptr }
%union.anon = type { i64, [8 x i8] }
%"class.std::allocator.4" = type { i8 }
%"class.cv::hfs::HfsSegmentImpl" = type { %"class.cv::hfs::HfsSegment", %"struct.cv::Ptr" }
%"class.cv::hfs::HfsSegment" = type { %"class.cv::Algorithm" }
%"class.cv::Algorithm" = type { ptr }
%"struct.cv::Ptr" = type { %"class.std::shared_ptr" }
%"class.std::shared_ptr" = type { %"class.std::__shared_ptr" }
%"class.std::__shared_ptr" = type { ptr, %"class.std::__shared_count" }
%"class.std::__shared_count" = type { ptr }
%"class.cv::hfs::HfsCore" = type { %"struct.cv::hfs::HfsSettings", %"class.std::vector", %"class.std::vector", %"struct.cv::Ptr.0" }
%"struct.cv::hfs::HfsSettings" = type { float, i32, float, i32, %"struct.cv::hfs::slic::slicSettings" }
%"struct.cv::hfs::slic::slicSettings" = type { %"class.cv::hfs::orutils::Vector2", i32, i32, float }
%"class.cv::hfs::orutils::Vector2" = type { %"struct.cv::hfs::orutils::Vector2_" }
%"struct.cv::hfs::orutils::Vector2_" = type { i32, i32 }
%"class.std::vector" = type { %"struct.std::_Vector_base" }
%"struct.std::_Vector_base" = type { %"struct.std::_Vector_base<float, std::allocator<float>>::_Vector_impl" }
%"struct.std::_Vector_base<float, std::allocator<float>>::_Vector_impl" = type { %"struct.std::_Vector_base<float, std::allocator<float>>::_Vector_impl_data" }
%"struct.std::_Vector_base<float, std::allocator<float>>::_Vector_impl_data" = type { ptr, ptr, ptr }
%"struct.cv::Ptr.0" = type { %"class.std::shared_ptr.1" }
%"class.std::shared_ptr.1" = type { %"class.std::__shared_ptr.2" }
%"class.std::__shared_ptr.2" = type { ptr, %"class.std::__shared_count" }
%"class.cv::_InputArray" = type { i32, ptr, %"class.cv::Size_" }
%"class.cv::Size_" = type { i32, i32 }

@.str = private unnamed_addr constant [55 x i8] c"src_.rows == core->hfsSettings.slicSettings.img_size.y\00", align 1
@__func__._ZN2cv3hfs14HfsSegmentImpl17performSegmentGpuERKNS_11_InputArrayEb = private unnamed_addr constant [18 x i8] c"performSegmentGpu\00", align 1
@.str.1 = private unnamed_addr constant [131 x i8] c"generated/home/dtcxzyw/WorkSpace/Projects/compilers/llvm-opt-benchmark/bench/opencv/contrib/opencv_contrib/modules/hfs/src/hfs.cpp\00", align 1
@.str.2 = private unnamed_addr constant [55 x i8] c"src_.cols == core->hfsSettings.slicSettings.img_size.x\00", align 1

; Function Attrs: mustprogress nounwind uwtable
define linkonce_odr hidden noundef ptr @_ZNKSt12__shared_ptrIN2cv3hfs7HfsCoreELN9__gnu_cxx12_Lock_policyE2EE3getEv(ptr noundef nonnull align 8 dereferenceable(16) %0) #1 comdat align 2 {
  %2 = alloca ptr, align 8
  store ptr %0, ptr %2, align 8
  %3 = load ptr, ptr %2, align 8
  %4 = getelementptr inbounds %"class.std::__shared_ptr", ptr %3, i32 0, i32 0
  %5 = load ptr, ptr %4, align 8
  ret ptr %5
}

; Function Attrs: mustprogress nounwind uwtable
define linkonce_odr hidden noundef ptr @_ZNK2cv3PtrINS_3hfs7HfsCoreEEptEv(ptr noundef nonnull align 8 dereferenceable(16) %0) #1 comdat align 2 {
  %2 = alloca ptr, align 8
  store ptr %0, ptr %2, align 8
  %3 = load ptr, ptr %2, align 8
  %4 = call noundef ptr @_ZNKSt12__shared_ptrIN2cv3hfs7HfsCoreELN9__gnu_cxx12_Lock_policyE2EE3getEv(ptr noundef nonnull align 8 dereferenceable(16) %3) #9
  ret ptr %4
}

; Function Attrs: mustprogress uwtable
define linkonce_odr hidden void @_ZNK2cv11_InputArray6getMatEi(ptr dead_on_unwind noalias writable sret(%"class.cv::Mat") align 8 %0, ptr noundef nonnull align 8 dereferenceable(24) %1, i32 noundef %2) #0 comdat align 2 {
  %4 = alloca ptr, align 8
  %5 = alloca ptr, align 8
  %6 = alloca i32, align 4
  store ptr %0, ptr %4, align 8
  store ptr %1, ptr %5, align 8
  store i32 %2, ptr %6, align 4
  %7 = load ptr, ptr %5, align 8
  %8 = call noundef i32 @_ZNK2cv11_InputArray4kindEv(ptr noundef nonnull align 8 dereferenceable(24) %7)
  %9 = icmp eq i32 %8, 65536
  br i1 %9, label %10, label %16

10:                                               ; preds = %3
  %11 = load i32, ptr %6, align 4
  %12 = icmp slt i32 %11, 0
  br i1 %12, label %13, label %16

13:                                               ; preds = %10
  %14 = getelementptr inbounds %"class.cv::_InputArray", ptr %7, i32 0, i32 1
  %15 = load ptr, ptr %14, align 8
  call void @_ZN2cv3MatC1ERKS0_(ptr noundef nonnull align 8 dereferenceable(96) %0, ptr noundef nonnull align 8 dereferenceable(96) %15)
  br label %18

16:                                               ; preds = %10, %3
  %17 = load i32, ptr %6, align 4
  call void @_ZNK2cv11_InputArray7getMat_Ei(ptr dead_on_unwind writable sret(%"class.cv::Mat") align 8 %0, ptr noundef nonnull align 8 dereferenceable(24) %7, i32 noundef %17)
  br label %18

18:                                               ; preds = %16, %13
  ret void
}

; Function Attrs: mustprogress uwtable
define hidden void @_ZN2cv3hfs14HfsSegmentImpl17performSegmentGpuERKNS_11_InputArrayEb(ptr dead_on_unwind noalias writable sret(%"class.cv::Mat") align 8 %0, ptr noundef nonnull align 8 dereferenceable(24) %1, ptr noundef nonnull align 8 dereferenceable(24) %2, i1 noundef zeroext %3) unnamed_addr #0 align 2 personality ptr @__gxx_personality_v0 {
  %5 = alloca ptr, align 8
  %6 = alloca ptr, align 8
  %7 = alloca ptr, align 8
  %8 = alloca i8, align 1
  %9 = alloca %"class.cv::Mat", align 8
  %10 = alloca %"class.std::__cxx11::basic_string", align 8
  %11 = alloca %"class.std::allocator.4", align 1
  %12 = alloca ptr, align 8
  %13 = alloca i32, align 4
  %14 = alloca %"class.std::__cxx11::basic_string", align 8
  %15 = alloca %"class.std::allocator.4", align 1
  %16 = alloca %"class.cv::Mat", align 8
  %17 = alloca i32, align 4
  %18 = alloca i1, align 1
  %19 = alloca i32, align 4
  store ptr %0, ptr %5, align 8
  store ptr %1, ptr %6, align 8
  store ptr %2, ptr %7, align 8
  %20 = zext i1 %3 to i8
  store i8 %20, ptr %8, align 1
  %21 = load ptr, ptr %6, align 8
  %22 = load ptr, ptr %7, align 8
  call void @_ZNK2cv11_InputArray6getMatEi(ptr dead_on_unwind writable sret(%"class.cv::Mat") align 8 %9, ptr noundef nonnull align 8 dereferenceable(24) %22, i32 noundef -1)
  br label %23

23:                                               ; preds = %4
  %24 = getelementptr inbounds %"class.cv::Mat", ptr %9, i32 0, i32 2
  %25 = load i32, ptr %24, align 8
  %26 = getelementptr inbounds %"class.cv::hfs::HfsSegmentImpl", ptr %21, i32 0, i32 1
  %27 = call noundef ptr @_ZNK2cv3PtrINS_3hfs7HfsCoreEEptEv(ptr noundef nonnull align 8 dereferenceable(16) %26) #9
  %28 = getelementptr inbounds %"class.cv::hfs::HfsCore", ptr %27, i32 0, i32 0
  %29 = getelementptr inbounds %"struct.cv::hfs::HfsSettings", ptr %28, i32 0, i32 4
  %30 = getelementptr inbounds %"struct.cv::hfs::slic::slicSettings", ptr %29, i32 0, i32 0
  %31 = getelementptr inbounds %"struct.cv::hfs::orutils::Vector2_", ptr %30, i32 0, i32 1
  %32 = load i32, ptr %31, align 4
  %33 = icmp eq i32 %25, %32
  br i1 %33, label %34, label %35

34:                                               ; preds = %23
  br label %47

35:                                               ; preds = %23
  call void @_ZNSaIcEC1Ev(ptr noundef nonnull align 1 dereferenceable(1) %11) #9
  invoke void @_ZNSt7__cxx1112basic_stringIcSt11char_traitsIcESaIcEEC1EPKcRKS3_(ptr noundef nonnull align 8 dereferenceable(32) %10, ptr noundef @.str, ptr noundef nonnull align 1 dereferenceable(1) %11)
          to label %36 unwind label %38

36:                                               ; preds = %35
  invoke void @_ZN2cv5errorEiRKNSt7__cxx1112basic_stringIcSt11char_traitsIcESaIcEEEPKcS9_i(i32 noundef -215, ptr noundef nonnull align 8 dereferenceable(32) %10, ptr noundef @__func__._ZN2cv3hfs14HfsSegmentImpl17performSegmentGpuERKNS_11_InputArrayEb, ptr noundef @.str.1, i32 noundef 102) #10
          to label %37 unwind label %42

37:                                               ; preds = %36
  unreachable

38:                                               ; preds = %35
  %39 = landingpad { ptr, i32 }
          cleanup
  %40 = extractvalue { ptr, i32 } %39, 0
  store ptr %40, ptr %12, align 8
  %41 = extractvalue { ptr, i32 } %39, 1
  store i32 %41, ptr %13, align 4
  br label %46

42:                                               ; preds = %36
  %43 = landingpad { ptr, i32 }
          cleanup
  %44 = extractvalue { ptr, i32 } %43, 0
  store ptr %44, ptr %12, align 8
  %45 = extractvalue { ptr, i32 } %43, 1
  store i32 %45, ptr %13, align 4
  call void @_ZNSt7__cxx1112basic_stringIcSt11char_traitsIcESaIcEED1Ev(ptr noundef nonnull align 8 dereferenceable(32) %10) #9
  br label %46

46:                                               ; preds = %42, %38
  call void @_ZNSaIcED1Ev(ptr noundef nonnull align 1 dereferenceable(1) %11) #9
  br label %102

47:                                               ; preds = %34
  br label %48

48:                                               ; preds = %47
  br label %49

49:                                               ; preds = %48
  br label %50

50:                                               ; preds = %49
  %51 = getelementptr inbounds %"class.cv::Mat", ptr %9, i32 0, i32 3
  %52 = load i32, ptr %51, align 4
  %53 = getelementptr inbounds %"class.cv::hfs::HfsSegmentImpl", ptr %21, i32 0, i32 1
  %54 = call noundef ptr @_ZNK2cv3PtrINS_3hfs7HfsCoreEEptEv(ptr noundef nonnull align 8 dereferenceable(16) %53) #9
  %55 = getelementptr inbounds %"class.cv::hfs::HfsCore", ptr %54, i32 0, i32 0
  %56 = getelementptr inbounds %"struct.cv::hfs::HfsSettings", ptr %55, i32 0, i32 4
  %57 = getelementptr inbounds %"struct.cv::hfs::slic::slicSettings", ptr %56, i32 0, i32 0
  %58 = getelementptr inbounds %"struct.cv::hfs::orutils::Vector2_", ptr %57, i32 0, i32 0
  %59 = load i32, ptr %58, align 8
  %60 = icmp eq i32 %52, %59
  br i1 %60, label %61, label %62

61:                                               ; preds = %50
  br label %74

62:                                               ; preds = %50
  call void @_ZNSaIcEC1Ev(ptr noundef nonnull align 1 dereferenceable(1) %15) #9
  invoke void @_ZNSt7__cxx1112basic_stringIcSt11char_traitsIcESaIcEEC1EPKcRKS3_(ptr noundef nonnull align 8 dereferenceable(32) %14, ptr noundef @.str.2, ptr noundef nonnull align 1 dereferenceable(1) %15)
          to label %63 unwind label %65

63:                                               ; preds = %62
  invoke void @_ZN2cv5errorEiRKNSt7__cxx1112basic_stringIcSt11char_traitsIcESaIcEEEPKcS9_i(i32 noundef -215, ptr noundef nonnull align 8 dereferenceable(32) %14, ptr noundef @__func__._ZN2cv3hfs14HfsSegmentImpl17performSegmentGpuERKNS_11_InputArrayEb, ptr noundef @.str.1, i32 noundef 103) #10
          to label %64 unwind label %69

64:                                               ; preds = %63
  unreachable

65:                                               ; preds = %62
  %66 = landingpad { ptr, i32 }
          cleanup
  %67 = extractvalue { ptr, i32 } %66, 0
  store ptr %67, ptr %12, align 8
  %68 = extractvalue { ptr, i32 } %66, 1
  store i32 %68, ptr %13, align 4
  br label %73

69:                                               ; preds = %63
  %70 = landingpad { ptr, i32 }
          cleanup
  %71 = extractvalue { ptr, i32 } %70, 0
  store ptr %71, ptr %12, align 8
  %72 = extractvalue { ptr, i32 } %70, 1
  store i32 %72, ptr %13, align 4
  call void @_ZNSt7__cxx1112basic_stringIcSt11char_traitsIcESaIcEED1Ev(ptr noundef nonnull align 8 dereferenceable(32) %14) #9
  br label %73

73:                                               ; preds = %69, %65
  call void @_ZNSaIcED1Ev(ptr noundef nonnull align 1 dereferenceable(1) %15) #9
  br label %102

74:                                               ; preds = %61
  br label %75

75:                                               ; preds = %74
  br label %76

76:                                               ; preds = %75
  call void @_ZN2cv3MatC1Ev(ptr noundef nonnull align 8 dereferenceable(96) %16) #9
  %77 = getelementptr inbounds %"class.cv::hfs::HfsSegmentImpl", ptr %21, i32 0, i32 1
  %78 = call noundef ptr @_ZNK2cv3PtrINS_3hfs7HfsCoreEEptEv(ptr noundef nonnull align 8 dereferenceable(16) %77) #9
  %79 = invoke noundef i32 @_ZN2cv3hfs7HfsCore15processImageGpuERKNS_3MatERS2_(ptr noundef nonnull align 8 dereferenceable(104) %78, ptr noundef nonnull align 8 dereferenceable(96) %9, ptr noundef nonnull align 8 dereferenceable(96) %16)
          to label %80 unwind label %89

80:                                               ; preds = %76
  store i32 %79, ptr %17, align 4
  %81 = load i8, ptr %8, align 1
  %82 = trunc i8 %81 to i1
  br i1 %82, label %83, label %99

83:                                               ; preds = %80
  store i1 false, ptr %18, align 1
  call void @_ZN2cv3MatC1Ev(ptr noundef nonnull align 8 dereferenceable(96) %0) #9
  %84 = getelementptr inbounds %"class.cv::hfs::HfsSegmentImpl", ptr %21, i32 0, i32 1
  %85 = call noundef ptr @_ZNK2cv3PtrINS_3hfs7HfsCoreEEptEv(ptr noundef nonnull align 8 dereferenceable(16) %84) #9
  %86 = load i32, ptr %17, align 4
  invoke void @_ZN2cv3hfs7HfsCore19drawSegmentationResERKNS_3MatES4_iRS2_(ptr noundef nonnull align 8 dereferenceable(104) %85, ptr noundef nonnull align 8 dereferenceable(96) %16, ptr noundef nonnull align 8 dereferenceable(96) %9, i32 noundef %86, ptr noundef nonnull align 8 dereferenceable(96) %0)
          to label %87 unwind label %93

87:                                               ; preds = %83
  store i1 true, ptr %18, align 1
  store i32 1, ptr %19, align 4
  %88 = load i1, ptr %18, align 1
  br i1 %88, label %98, label %97

89:                                               ; preds = %76
  %90 = landingpad { ptr, i32 }
          cleanup
  %91 = extractvalue { ptr, i32 } %90, 0
  store ptr %91, ptr %12, align 8
  %92 = extractvalue { ptr, i32 } %90, 1
  store i32 %92, ptr %13, align 4
  br label %101

93:                                               ; preds = %83
  %94 = landingpad { ptr, i32 }
          cleanup
  %95 = extractvalue { ptr, i32 } %94, 0
  store ptr %95, ptr %12, align 8
  %96 = extractvalue { ptr, i32 } %94, 1
  store i32 %96, ptr %13, align 4
  call void @_ZN2cv3MatD1Ev(ptr noundef nonnull align 8 dereferenceable(96) %0) #9
  br label %101

97:                                               ; preds = %87
  call void @_ZN2cv3MatD1Ev(ptr noundef nonnull align 8 dereferenceable(96) %0) #9
  br label %98

98:                                               ; preds = %97, %87
  br label %100

99:                                               ; preds = %80
  call void @_ZN2cv3MatC1EOS0_(ptr noundef nonnull align 8 dereferenceable(96) %0, ptr noundef nonnull align 8 dereferenceable(96) %16) #9
  store i32 1, ptr %19, align 4
  br label %100

100:                                              ; preds = %99, %98
  call void @_ZN2cv3MatD1Ev(ptr noundef nonnull align 8 dereferenceable(96) %16) #9
  call void @_ZN2cv3MatD1Ev(ptr noundef nonnull align 8 dereferenceable(96) %9) #9
  ret void

101:                                              ; preds = %93, %89
  call void @_ZN2cv3MatD1Ev(ptr noundef nonnull align 8 dereferenceable(96) %16) #9
  br label %102

102:                                              ; preds = %101, %73, %46
  call void @_ZN2cv3MatD1Ev(ptr noundef nonnull align 8 dereferenceable(96) %9) #9
  br label %103

103:                                              ; preds = %102
  %104 = load ptr, ptr %12, align 8
  %105 = load i32, ptr %13, align 4
  %106 = insertvalue { ptr, i32 } poison, ptr %104, 0
  %107 = insertvalue { ptr, i32 } %106, i32 %105, 1
  resume { ptr, i32 } %107
}