; Function Attrs: mustprogress uwtable
define hidden void @_ZN2cv3hfs14HfsSegmentImpl17performSegmentGpuERKNS_11_InputArrayEb(ptr dead_on_unwind noalias writable sret(%"class.cv::Mat") align 8 %0, ptr nocapture noundef nonnull readonly align 8 dereferenceable(24) %1, ptr noundef nonnull align 8 dereferenceable(24) %2, i1 noundef zeroext %3) unnamed_addr #0 align 2 personality ptr @__gxx_personality_v0 {
  %5 = alloca %"class.cv::Mat", align 8
  %6 = alloca %"class.std::__cxx11::basic_string", align 8
  %7 = alloca %"class.std::allocator.4", align 1
  %8 = alloca %"class.std::__cxx11::basic_string", align 8
  %9 = alloca %"class.std::allocator.4", align 1
  %10 = alloca %"class.cv::Mat", align 8
  %11 = tail call noundef i32 @_ZNK2cv11_InputArray4kindEv(ptr noundef nonnull align 8 dereferenceable(24) %2), !noalias !4
  %12 = icmp eq i32 %11, 65536
  br i1 %12, label %13, label %16

13:                                               ; preds = %4
  %14 = getelementptr inbounds i8, ptr %2, i64 8
  %15 = load ptr, ptr %14, align 8, !noalias !4
  call void @_ZN2cv3MatC1ERKS0_(ptr noundef nonnull align 8 dereferenceable(96) %5, ptr noundef nonnull align 8 dereferenceable(96) %15)
  br label %_ZNK2cv11_InputArray6getMatEi.exit

16:                                               ; preds = %4
  call void @_ZNK2cv11_InputArray7getMat_Ei(ptr dead_on_unwind nonnull writable sret(%"class.cv::Mat") align 8 %5, ptr noundef nonnull align 8 dereferenceable(24) %2, i32 noundef -1)
  br label %_ZNK2cv11_InputArray6getMatEi.exit

_ZNK2cv11_InputArray6getMatEi.exit:               ; preds = %13, %16
  %17 = getelementptr inbounds i8, ptr %5, i64 8
  %18 = load i32, ptr %17, align 8
  %19 = getelementptr inbounds i8, ptr %1, i64 8
  %20 = load ptr, ptr %19, align 8
  %21 = getelementptr inbounds i8, ptr %20, i64 20
  %22 = load i32, ptr %21, align 4
  %23 = icmp eq i32 %18, %22
  br i1 %23, label %32, label %24

24:                                               ; preds = %_ZNK2cv11_InputArray6getMatEi.exit
  call void @_ZNSaIcEC1Ev(ptr noundef nonnull align 1 dereferenceable(1) %7) #9
  invoke void @_ZNSt7__cxx1112basic_stringIcSt11char_traitsIcESaIcEEC1EPKcRKS3_(ptr noundef nonnull align 8 dereferenceable(32) %6, ptr noundef nonnull @.str, ptr noundef nonnull align 1 dereferenceable(1) %7)
          to label %25 unwind label %27

25:                                               ; preds = %24
  invoke void @_ZN2cv5errorEiRKNSt7__cxx1112basic_stringIcSt11char_traitsIcESaIcEEEPKcS9_i(i32 noundef -215, ptr noundef nonnull align 8 dereferenceable(32) %6, ptr noundef nonnull @__func__._ZN2cv3hfs14HfsSegmentImpl17performSegmentGpuERKNS_11_InputArrayEb, ptr noundef nonnull @.str.1, i32 noundef 102) #10
          to label %26 unwind label %29

26:                                               ; preds = %25
  unreachable

27:                                               ; preds = %24
  %28 = landingpad { ptr, i32 }
          cleanup
  br label %31

29:                                               ; preds = %25
  %30 = landingpad { ptr, i32 }
          cleanup
  call void @_ZNSt7__cxx1112basic_stringIcSt11char_traitsIcESaIcEED1Ev(ptr noundef nonnull align 8 dereferenceable(32) %6) #9
  br label %31

31:                                               ; preds = %29, %27
  %.pn = phi { ptr, i32 } [ %30, %29 ], [ %28, %27 ]
  call void @_ZNSaIcED1Ev(ptr noundef nonnull align 1 dereferenceable(1) %7) #9
  br label %59

32:                                               ; preds = %_ZNK2cv11_InputArray6getMatEi.exit
  %33 = getelementptr inbounds i8, ptr %5, i64 12
  %34 = load i32, ptr %33, align 4
  %35 = getelementptr inbounds i8, ptr %20, i64 16
  %36 = load i32, ptr %35, align 8
  %37 = icmp eq i32 %34, %36
  br i1 %37, label %46, label %38

38:                                               ; preds = %32
  call void @_ZNSaIcEC1Ev(ptr noundef nonnull align 1 dereferenceable(1) %9) #9
  invoke void @_ZNSt7__cxx1112basic_stringIcSt11char_traitsIcESaIcEEC1EPKcRKS3_(ptr noundef nonnull align 8 dereferenceable(32) %8, ptr noundef nonnull @.str.2, ptr noundef nonnull align 1 dereferenceable(1) %9)
          to label %39 unwind label %41

39:                                               ; preds = %38
  invoke void @_ZN2cv5errorEiRKNSt7__cxx1112basic_stringIcSt11char_traitsIcESaIcEEEPKcS9_i(i32 noundef -215, ptr noundef nonnull align 8 dereferenceable(32) %8, ptr noundef nonnull @__func__._ZN2cv3hfs14HfsSegmentImpl17performSegmentGpuERKNS_11_InputArrayEb, ptr noundef nonnull @.str.1, i32 noundef 103) #10
          to label %40 unwind label %43

40:                                               ; preds = %39
  unreachable

41:                                               ; preds = %38
  %42 = landingpad { ptr, i32 }
          cleanup
  br label %45

43:                                               ; preds = %39
  %44 = landingpad { ptr, i32 }
          cleanup
  call void @_ZNSt7__cxx1112basic_stringIcSt11char_traitsIcESaIcEED1Ev(ptr noundef nonnull align 8 dereferenceable(32) %8) #9
  br label %45

45:                                               ; preds = %43, %41
  %.pn11 = phi { ptr, i32 } [ %44, %43 ], [ %42, %41 ]
  call void @_ZNSaIcED1Ev(ptr noundef nonnull align 1 dereferenceable(1) %9) #9
  br label %59

46:                                               ; preds = %32
  call void @_ZN2cv3MatC1Ev(ptr noundef nonnull align 8 dereferenceable(96) %10) #9
  %47 = load ptr, ptr %19, align 8
  %48 = invoke noundef i32 @_ZN2cv3hfs7HfsCore15processImageGpuERKNS_3MatERS2_(ptr noundef nonnull align 8 dereferenceable(104) %47, ptr noundef nonnull align 8 dereferenceable(96) %5, ptr noundef nonnull align 8 dereferenceable(96) %10)
          to label %49 unwind label %52

49:                                               ; preds = %46
  br i1 %3, label %50, label %56

50:                                               ; preds = %49
  call void @_ZN2cv3MatC1Ev(ptr noundef nonnull align 8 dereferenceable(96) %0) #9
  %51 = load ptr, ptr %19, align 8
  invoke void @_ZN2cv3hfs7HfsCore19drawSegmentationResERKNS_3MatES4_iRS2_(ptr noundef nonnull align 8 dereferenceable(104) %51, ptr noundef nonnull align 8 dereferenceable(96) %10, ptr noundef nonnull align 8 dereferenceable(96) %5, i32 noundef %48, ptr noundef nonnull align 8 dereferenceable(96) %0)
          to label %57 unwind label %54

52:                                               ; preds = %46
  %53 = landingpad { ptr, i32 }
          cleanup
  br label %58

54:                                               ; preds = %50
  %55 = landingpad { ptr, i32 }
          cleanup
  call void @_ZN2cv3MatD1Ev(ptr noundef nonnull align 8 dereferenceable(96) %0) #9
  br label %58

56:                                               ; preds = %49
  call void @_ZN2cv3MatC1EOS0_(ptr noundef nonnull align 8 dereferenceable(96) %0, ptr noundef nonnull align 8 dereferenceable(96) %10) #9
  br label %57

57:                                               ; preds = %50, %56
  call void @_ZN2cv3MatD1Ev(ptr noundef nonnull align 8 dereferenceable(96) %10) #9
  call void @_ZN2cv3MatD1Ev(ptr noundef nonnull align 8 dereferenceable(96) %5) #9
  ret void

58:                                               ; preds = %54, %52
  %.pn13 = phi { ptr, i32 } [ %55, %54 ], [ %53, %52 ]
  call void @_ZN2cv3MatD1Ev(ptr noundef nonnull align 8 dereferenceable(96) %10) #9
  br label %59

59:                                               ; preds = %58, %45, %31
  %.pn13.pn = phi { ptr, i32 } [ %.pn13, %58 ], [ %.pn11, %45 ], [ %.pn, %31 ]
  call void @_ZN2cv3MatD1Ev(ptr noundef nonnull align 8 dereferenceable(96) %5) #9
  resume { ptr, i32 } %.pn13.pn
}